; Function Attrs: mustprogress nofree norecurse nosync nounwind willreturn memory(read, inaccessiblemem: none) uwtable
define internal fastcc ptr @GetLWTrancheName(i16 noundef zeroext %0) unnamed_addr #8 {
  %2 = icmp ult i16 %0, 92
  br i1 %2, label %3, label %7

3:                                                ; preds = %1
  %4 = zext nneg i16 %0 to i64
  %5 = getelementptr inbounds nuw [92 x ptr], ptr @BuiltinTrancheNames, i64 0, i64 %4
  %6 = load ptr, ptr %5, align 8
  br label %17

7:                                                ; preds = %1
  %8 = add i16 %0, -92
  %9 = zext i16 %8 to i32
  %10 = load i32, ptr @LWLockTrancheNamesAllocated, align 4
  %.not = icmp sgt i32 %10, %9
  br i1 %.not, label %11, label %17

11:                                               ; preds = %7
  %12 = load ptr, ptr @LWLockTrancheNames, align 8
  %13 = zext i16 %8 to i64
  %14 = getelementptr inbounds nuw ptr, ptr %12, i64 %13
  %15 = load ptr, ptr %14, align 8
  %16 = icmp eq ptr %15, null
  %spec.select = select i1 %16, ptr @.str.5, ptr %15
  br label %17

17:                                               ; preds = %11, %7, %3
  %.0 = phi ptr [ %6, %3 ], [ @.str.5, %7 ], [ %spec.select, %11 ]
  ret ptr %.0
}